target datalayout = "e-m:e-p270:32:32-p271:32:32-p272:64:64-i64:64-i128:128-f80:128-n8:16:32:64-S128"
target triple = "x86_64-pc-linux-gnu"

; Function Attrs: mustprogress nounwind uwtable
define hidden noundef i32 @_ZN12ConstantPool21find_matching_operandEiRK18constantPoolHandlei(ptr noundef nonnull align 8 dereferenceable(68) %0, i32 noundef %1, ptr noundef nonnull align 8 dereferenceable(16) %2, i32 noundef %3) #1 align 2 {
  %5 = alloca i32, align 4
  %6 = alloca ptr, align 8
  %7 = alloca i32, align 4
  %8 = alloca ptr, align 8
  %9 = alloca i32, align 4
  %10 = alloca i32, align 4
  %11 = alloca i8, align 1
  store ptr %0, ptr %6, align 8
  store i32 %1, ptr %7, align 4
  store ptr %2, ptr %8, align 8
  store i32 %3, ptr %9, align 4
  %12 = load ptr, ptr %6, align 8
  store i32 0, ptr %10, align 4
  br label %13

13:                                               ; preds = %28, %4
  %14 = load i32, ptr %10, align 4
  %15 = load i32, ptr %9, align 4
  %16 = icmp slt i32 %14, %15
  br i1 %16, label %17, label %31

17:                                               ; preds = %13
  %18 = load i32, ptr %7, align 4
  %19 = load ptr, ptr %8, align 8
  %20 = load i32, ptr %10, align 4
  %21 = call noundef zeroext i1 @_ZN12ConstantPool18compare_operand_toEiRK18constantPoolHandlei(ptr noundef nonnull align 8 dereferenceable(68) %12, i32 noundef %18, ptr noundef nonnull align 8 dereferenceable(16) %19, i32 noundef %20)
  %22 = zext i1 %21 to i8
  store i8 %22, ptr %11, align 1
  %23 = load i8, ptr %11, align 1
  %24 = trunc i8 %23 to i1
  br i1 %24, label %25, label %27

25:                                               ; preds = %17
  %26 = load i32, ptr %10, align 4
  store i32 %26, ptr %5, align 4
  br label %32

27:                                               ; preds = %17
  br label %28

28:                                               ; preds = %27
  %29 = load i32, ptr %10, align 4
  %30 = add nsw i32 %29, 1
  store i32 %30, ptr %10, align 4
  br label %13, !llvm.loop !23

31:                                               ; preds = %13
  store i32 -1, ptr %5, align 4
  br label %32

32:                                               ; preds = %31, %25
  %33 = load i32, ptr %5, align 4
  ret i32 %33
}