; Function Attrs: mustprogress nounwind uwtable
define hidden noundef i32 @_ZN12ConstantPool21find_matching_operandEiRK18constantPoolHandlei(ptr nocapture noundef nonnull readonly align 8 dereferenceable(68) %0, i32 noundef %1, ptr nocapture noundef nonnull readonly align 8 dereferenceable(16) %2, i32 noundef %3) local_unnamed_addr #0 align 2 {
  %5 = icmp sgt i32 %3, 0
  br i1 %5, label %.lr.ph, label %._crit_edge

.lr.ph:                                           ; preds = %4, %7
  %.0910 = phi i32 [ %8, %7 ], [ 0, %4 ]
  %6 = tail call noundef zeroext i1 @_ZN12ConstantPool18compare_operand_toEiRK18constantPoolHandlei(ptr noundef nonnull align 8 dereferenceable(68) %0, i32 noundef %1, ptr noundef nonnull align 8 dereferenceable(16) %2, i32 noundef %.0910)
  br i1 %6, label %._crit_edge, label %7

7:                                                ; preds = %.lr.ph
  %8 = add nuw nsw i32 %.0910, 1
  %exitcond.not = icmp eq i32 %8, %3
  br i1 %exitcond.not, label %._crit_edge, label %.lr.ph, !llvm.loop !33

._crit_edge:                                      ; preds = %.lr.ph, %7, %4
  %.0 = phi i32 [ -1, %4 ], [ -1, %7 ], [ %.0910, %.lr.ph ]
  ret i32 %.0
}